target datalayout = "e-m:e-p270:32:32-p271:32:32-p272:64:64-i64:64-i128:128-f80:128-n8:16:32:64-S128"
target triple = "x86_64-pc-linux-gnu"

@.str.13 = private unnamed_addr constant [43 x i8] c"PaPulseAudio_StreamStateCb: Invalid stream\00", align 1

; Function Attrs: nounwind uwtable
define void @PaPulseAudio_StreamStateCb(ptr noundef %0, ptr noundef %1) #0 {
  %3 = alloca ptr, align 8
  %4 = alloca ptr, align 8
  %5 = alloca ptr, align 8
  %6 = alloca ptr, align 8
  %7 = alloca i32, align 4
  store ptr %0, ptr %3, align 8
  store ptr %1, ptr %4, align 8
  %8 = load ptr, ptr %4, align 8
  store ptr %8, ptr %5, align 8
  store ptr null, ptr %6, align 8
  store i32 0, ptr %7, align 4
  %9 = load ptr, ptr %3, align 8
  %10 = icmp ne ptr %9, null
  br i1 %10, label %12, label %11

11:                                               ; preds = %2
  call void @PaUtil_SetLastHostErrorInfo(i32 noundef 0, i64 noundef 0, ptr noundef @.str.13)
  br label %27

12:                                               ; preds = %2
  %13 = load ptr, ptr %3, align 8
  %14 = call i32 @pa_stream_get_state(ptr noundef %13)
  store i32 %14, ptr %7, align 4
  %15 = load i32, ptr %7, align 4
  switch i32 %15, label %26 [
    i32 1, label %16
    i32 2, label %17
    i32 4, label %24
    i32 3, label %25
  ]

16:                                               ; preds = %12
  br label %27

17:                                               ; preds = %12
  %18 = load ptr, ptr %3, align 8
  %19 = call ptr @pa_stream_get_buffer_attr(ptr noundef %18)
  store ptr %19, ptr %6, align 8
  %20 = icmp ne ptr %19, null
  br i1 %20, label %22, label %21

21:                                               ; preds = %17
  br label %23

22:                                               ; preds = %17
  br label %23

23:                                               ; preds = %22, %21
  br label %27

24:                                               ; preds = %12
  br label %27

25:                                               ; preds = %12
  br label %26

26:                                               ; preds = %25, %12
  br label %27

27:                                               ; preds = %26, %24, %23, %16, %11
  ret void
}