; Function Attrs: nounwind uwtable
define void @PaPulseAudio_StreamStateCb(ptr noundef %0, ptr nocapture readnone %1) #0 {
  %.not = icmp eq ptr %0, null
  br i1 %.not, label %3, label %4

3:                                                ; preds = %2
  tail call void @PaUtil_SetLastHostErrorInfo(i32 noundef 0, i64 noundef 0, ptr noundef nonnull @.str.13) #13
  br label %8

4:                                                ; preds = %2
  %5 = tail call i32 @pa_stream_get_state(ptr noundef nonnull %0) #13
  %cond = icmp eq i32 %5, 2
  br i1 %cond, label %6, label %8

6:                                                ; preds = %4
  %7 = tail call ptr @pa_stream_get_buffer_attr(ptr noundef nonnull %0) #13
  br label %8

8:                                                ; preds = %4, %6, %3
  ret void
}